target datalayout = "e-m:e-p270:32:32-p271:32:32-p272:64:64-i64:64-i128:128-f80:128-n8:16:32:64-S128"
target triple = "x86_64-unknown-linux-gnu"

%struct.cbb_st = type { ptr, ptr, i64, i8, i8, i8 }

; Function Attrs: nounwind uwtable
define hidden i32 @i2d_ECPrivateKey(ptr noundef %key, ptr noundef %outp) #0 {
entry:
  %retval = alloca i32, align 4
  %key.addr = alloca ptr, align 8
  %outp.addr = alloca ptr, align 8
  %cbb = alloca %struct.cbb_st, align 8
  store ptr %key, ptr %key.addr, align 8
  store ptr %outp, ptr %outp.addr, align 8
  %call = call i32 @CBB_init(ptr noundef %cbb, i64 noundef 0)
  %tobool = icmp ne i32 %call, 0
  br i1 %tobool, label %lor.lhs.false, label %if.then

lor.lhs.false:                                    ; preds = %entry
  %0 = load ptr, ptr %key.addr, align 8
  %1 = load ptr, ptr %key.addr, align 8
  %call1 = call i32 @EC_KEY_get_enc_flags(ptr noundef %1)
  %call2 = call i32 @EC_KEY_marshal_private_key(ptr noundef %cbb, ptr noundef %0, i32 noundef %call1)
  %tobool3 = icmp ne i32 %call2, 0
  br i1 %tobool3, label %if.end, label %if.then

if.then:                                          ; preds = %lor.lhs.false, %entry
  call void @CBB_cleanup(ptr noundef %cbb)
  store i32 -1, ptr %retval, align 4
  br label %return

if.end:                                           ; preds = %lor.lhs.false
  %2 = load ptr, ptr %outp.addr, align 8
  %call4 = call i32 @CBB_finish_i2d(ptr noundef %cbb, ptr noundef %2)
  store i32 %call4, ptr %retval, align 4
  br label %return

return:                                           ; preds = %if.end, %if.then
  %3 = load i32, ptr %retval, align 4
  ret i32 %3
}