; Function Attrs: nounwind uwtable
define hidden i32 @i2d_ECPrivateKey(ptr noundef %key, ptr noundef %outp) local_unnamed_addr #0 {
entry:
  %cbb = alloca %struct.cbb_st, align 8
  %call = call i32 @CBB_init(ptr noundef nonnull %cbb, i64 noundef 0) #7
  %tobool.not = icmp eq i32 %call, 0
  br i1 %tobool.not, label %if.then, label %lor.lhs.false

lor.lhs.false:                                    ; preds = %entry
  %call1 = call i32 @EC_KEY_get_enc_flags(ptr noundef %key) #7
  %call2 = call i32 @EC_KEY_marshal_private_key(ptr noundef nonnull %cbb, ptr noundef %key, i32 noundef %call1)
  %tobool3.not = icmp eq i32 %call2, 0
  br i1 %tobool3.not, label %if.then, label %if.end

if.then:                                          ; preds = %lor.lhs.false, %entry
  call void @CBB_cleanup(ptr noundef nonnull %cbb) #7
  br label %return

if.end:                                           ; preds = %lor.lhs.false
  %call4 = call i32 @CBB_finish_i2d(ptr noundef nonnull %cbb, ptr noundef %outp) #7
  br label %return

return:                                           ; preds = %if.end, %if.then
  %retval.0 = phi i32 [ %call4, %if.end ], [ -1, %if.then ]
  ret i32 %retval.0
}